target datalayout = "e-m:e-p270:32:32-p271:32:32-p272:64:64-i64:64-i128:128-f80:128-n8:16:32:64-S128"
target triple = "x86_64-pc-linux-gnu"

%struct.UConverter = type { ptr, ptr, ptr, ptr, ptr, ptr, ptr, i32, i8, i8, i8, i8, i8, [7 x i8], i32, i32, i32, i32, i8, i8, i8, i8, i8, i8, i8, i8, [8 x i8], [32 x i8], [2 x i16], [2 x i16], [32 x i16], i32, [19 x i16], [31 x i8], i8, i8, i8, i32 }
%struct.UConverterDataISO2022 = type { [10 x ptr], ptr, i32, %struct.ISO2022State, %struct.ISO2022State, i32, i32, i8, [30 x i8], [3 x i8] }
%struct.ISO2022State = type { [4 x i8], i8, i8 }
%struct.UConverterFromUnicodeArgs = type { i16, i8, ptr, ptr, ptr, ptr, ptr, ptr }

; Function Attrs: mustprogress uwtable
define internal void @_ZL18_ISO_2022_WriteSubP25UConverterFromUnicodeArgsiP10UErrorCode(ptr noundef %0, i32 noundef %1, ptr noundef %2) #0 {
  %4 = alloca ptr, align 8
  %5 = alloca i32, align 4
  %6 = alloca ptr, align 8
  %7 = alloca ptr, align 8
  %8 = alloca ptr, align 8
  %9 = alloca ptr, align 8
  %10 = alloca ptr, align 8
  %11 = alloca ptr, align 8
  %12 = alloca [8 x i8], align 1
  %13 = alloca i32, align 4
  %14 = alloca i8, align 1
  %15 = alloca ptr, align 8
  %16 = alloca i8, align 1
  %17 = alloca i32, align 4
  store ptr %0, ptr %4, align 8, !tbaa !8
  store i32 %1, ptr %5, align 4, !tbaa !25
  store ptr %2, ptr %6, align 8, !tbaa !8
  call void @llvm.lifetime.start.p0(i64 8, ptr %7) #11
  %18 = load ptr, ptr %4, align 8, !tbaa !8
  %19 = getelementptr inbounds nuw %struct.UConverterFromUnicodeArgs, ptr %18, i32 0, i32 2
  %20 = load ptr, ptr %19, align 8, !tbaa !60
  store ptr %20, ptr %7, align 8, !tbaa !3
  call void @llvm.lifetime.start.p0(i64 8, ptr %8) #11
  %21 = load ptr, ptr %7, align 8, !tbaa !3
  %22 = getelementptr inbounds nuw %struct.UConverter, ptr %21, i32 0, i32 2
  %23 = load ptr, ptr %22, align 8, !tbaa !9
  store ptr %23, ptr %8, align 8, !tbaa !8
  call void @llvm.lifetime.start.p0(i64 8, ptr %9) #11
  %24 = load ptr, ptr %8, align 8, !tbaa !8
  %25 = getelementptr inbounds nuw %struct.UConverterDataISO2022, ptr %24, i32 0, i32 4
  store ptr %25, ptr %9, align 8, !tbaa !63
  call void @llvm.lifetime.start.p0(i64 8, ptr %10) #11
  call void @llvm.lifetime.start.p0(i64 8, ptr %11) #11
  call void @llvm.lifetime.start.p0(i64 8, ptr %12) #11
  call void @llvm.lifetime.start.p0(i64 4, ptr %13) #11
  %26 = load ptr, ptr %7, align 8, !tbaa !3
  %27 = getelementptr inbounds nuw %struct.UConverter, ptr %26, i32 0, i32 5
  %28 = load ptr, ptr %27, align 8, !tbaa !37
  store ptr %28, ptr %11, align 8, !tbaa !35
  %29 = load ptr, ptr %7, align 8, !tbaa !3
  %30 = getelementptr inbounds nuw %struct.UConverter, ptr %29, i32 0, i32 19
  %31 = load i8, ptr %30, align 1, !tbaa !38
  %32 = sext i8 %31 to i32
  store i32 %32, ptr %13, align 4, !tbaa !25
  %33 = getelementptr inbounds [8 x i8], ptr %12, i64 0, i64 0
  store ptr %33, ptr %10, align 8, !tbaa !35
  %34 = load ptr, ptr %8, align 8, !tbaa !8
  %35 = getelementptr inbounds nuw %struct.UConverterDataISO2022, ptr %34, i32 0, i32 9
  %36 = getelementptr inbounds [3 x i8], ptr %35, i64 0, i64 0
  %37 = load i8, ptr %36, align 1, !tbaa !27
  %38 = sext i8 %37 to i32
  switch i32 %38, label %247 [
    i32 106, label %39
    i32 99, label %78
    i32 107, label %95
  ]

39:                                               ; preds = %3
  call void @llvm.lifetime.start.p0(i64 1, ptr %14) #11
  %40 = load ptr, ptr %9, align 8, !tbaa !63
  %41 = getelementptr inbounds nuw %struct.ISO2022State, ptr %40, i32 0, i32 1
  %42 = load i8, ptr %41, align 1, !tbaa !65
  %43 = sext i8 %42 to i32
  %44 = icmp eq i32 %43, 1
  br i1 %44, label %45, label %50

45:                                               ; preds = %39
  %46 = load ptr, ptr %9, align 8, !tbaa !63
  %47 = getelementptr inbounds nuw %struct.ISO2022State, ptr %46, i32 0, i32 1
  store i8 0, ptr %47, align 1, !tbaa !65
  %48 = load ptr, ptr %10, align 8, !tbaa !35
  %49 = getelementptr inbounds nuw i8, ptr %48, i32 1
  store ptr %49, ptr %10, align 8, !tbaa !35
  store i8 15, ptr %48, align 1, !tbaa !27
  br label %50

50:                                               ; preds = %45, %39
  %51 = load ptr, ptr %9, align 8, !tbaa !63
  %52 = getelementptr inbounds nuw %struct.ISO2022State, ptr %51, i32 0, i32 0
  %53 = getelementptr inbounds [4 x i8], ptr %52, i64 0, i64 0
  %54 = load i8, ptr %53, align 1, !tbaa !27
  store i8 %54, ptr %14, align 1, !tbaa !27
  %55 = load i8, ptr %14, align 1, !tbaa !27
  %56 = sext i8 %55 to i32
  %57 = icmp ne i32 %56, 0
  br i1 %57, label %58, label %72

58:                                               ; preds = %50
  %59 = load i8, ptr %14, align 1, !tbaa !27
  %60 = sext i8 %59 to i32
  %61 = icmp ne i32 %60, 3
  br i1 %61, label %62, label %72

62:                                               ; preds = %58
  %63 = load ptr, ptr %9, align 8, !tbaa !63
  %64 = getelementptr inbounds nuw %struct.ISO2022State, ptr %63, i32 0, i32 0
  %65 = getelementptr inbounds [4 x i8], ptr %64, i64 0, i64 0
  store i8 0, ptr %65, align 1, !tbaa !27
  %66 = load ptr, ptr %10, align 8, !tbaa !35
  %67 = getelementptr inbounds nuw i8, ptr %66, i32 1
  store ptr %67, ptr %10, align 8, !tbaa !35
  store i8 27, ptr %66, align 1, !tbaa !27
  %68 = load ptr, ptr %10, align 8, !tbaa !35
  %69 = getelementptr inbounds nuw i8, ptr %68, i32 1
  store ptr %69, ptr %10, align 8, !tbaa !35
  store i8 40, ptr %68, align 1, !tbaa !27
  %70 = load ptr, ptr %10, align 8, !tbaa !35
  %71 = getelementptr inbounds nuw i8, ptr %70, i32 1
  store ptr %71, ptr %10, align 8, !tbaa !35
  store i8 66, ptr %70, align 1, !tbaa !27
  br label %72

72:                                               ; preds = %62, %58, %50
  %73 = load ptr, ptr %11, align 8, !tbaa !35
  %74 = getelementptr inbounds i8, ptr %73, i64 0
  %75 = load i8, ptr %74, align 1, !tbaa !27
  %76 = load ptr, ptr %10, align 8, !tbaa !35
  %77 = getelementptr inbounds nuw i8, ptr %76, i32 1
  store ptr %77, ptr %10, align 8, !tbaa !35
  store i8 %75, ptr %76, align 1, !tbaa !27
  call void @llvm.lifetime.end.p0(i64 1, ptr %14) #11
  br label %248

78:                                               ; preds = %3
  %79 = load ptr, ptr %9, align 8, !tbaa !63
  %80 = getelementptr inbounds nuw %struct.ISO2022State, ptr %79, i32 0, i32 1
  %81 = load i8, ptr %80, align 1, !tbaa !65
  %82 = sext i8 %81 to i32
  %83 = icmp ne i32 %82, 0
  br i1 %83, label %84, label %89

84:                                               ; preds = %78
  %85 = load ptr, ptr %9, align 8, !tbaa !63
  %86 = getelementptr inbounds nuw %struct.ISO2022State, ptr %85, i32 0, i32 1
  store i8 0, ptr %86, align 1, !tbaa !65
  %87 = load ptr, ptr %10, align 8, !tbaa !35
  %88 = getelementptr inbounds nuw i8, ptr %87, i32 1
  store ptr %88, ptr %10, align 8, !tbaa !35
  store i8 15, ptr %87, align 1, !tbaa !27
  br label %89

89:                                               ; preds = %84, %78
  %90 = load ptr, ptr %11, align 8, !tbaa !35
  %91 = getelementptr inbounds i8, ptr %90, i64 0
  %92 = load i8, ptr %91, align 1, !tbaa !27
  %93 = load ptr, ptr %10, align 8, !tbaa !35
  %94 = getelementptr inbounds nuw i8, ptr %93, i32 1
  store ptr %94, ptr %10, align 8, !tbaa !35
  store i8 %92, ptr %93, align 1, !tbaa !27
  br label %248

95:                                               ; preds = %3
  %96 = load ptr, ptr %8, align 8, !tbaa !8
  %97 = getelementptr inbounds nuw %struct.UConverterDataISO2022, ptr %96, i32 0, i32 6
  %98 = load i32, ptr %97, align 4, !tbaa !26
  %99 = icmp eq i32 %98, 0
  br i1 %99, label %100, label %149

100:                                              ; preds = %95
  %101 = load i32, ptr %13, align 4, !tbaa !25
  %102 = icmp eq i32 %101, 1
  br i1 %102, label %103, label %123

103:                                              ; preds = %100
  %104 = load ptr, ptr %4, align 8, !tbaa !8
  %105 = getelementptr inbounds nuw %struct.UConverterFromUnicodeArgs, ptr %104, i32 0, i32 2
  %106 = load ptr, ptr %105, align 8, !tbaa !60
  %107 = getelementptr inbounds nuw %struct.UConverter, ptr %106, i32 0, i32 16
  %108 = load i32, ptr %107, align 8, !tbaa !22
  %109 = icmp ne i32 %108, 0
  br i1 %109, label %110, label %117

110:                                              ; preds = %103
  %111 = load ptr, ptr %4, align 8, !tbaa !8
  %112 = getelementptr inbounds nuw %struct.UConverterFromUnicodeArgs, ptr %111, i32 0, i32 2
  %113 = load ptr, ptr %112, align 8, !tbaa !60
  %114 = getelementptr inbounds nuw %struct.UConverter, ptr %113, i32 0, i32 16
  store i32 0, ptr %114, align 8, !tbaa !22
  %115 = load ptr, ptr %10, align 8, !tbaa !35
  %116 = getelementptr inbounds nuw i8, ptr %115, i32 1
  store ptr %116, ptr %10, align 8, !tbaa !35
  store i8 15, ptr %115, align 1, !tbaa !27
  br label %117

117:                                              ; preds = %110, %103
  %118 = load ptr, ptr %11, align 8, !tbaa !35
  %119 = getelementptr inbounds i8, ptr %118, i64 0
  %120 = load i8, ptr %119, align 1, !tbaa !27
  %121 = load ptr, ptr %10, align 8, !tbaa !35
  %122 = getelementptr inbounds nuw i8, ptr %121, i32 1
  store ptr %122, ptr %10, align 8, !tbaa !35
  store i8 %120, ptr %121, align 1, !tbaa !27
  br label %148

123:                                              ; preds = %100
  %124 = load ptr, ptr %4, align 8, !tbaa !8
  %125 = getelementptr inbounds nuw %struct.UConverterFromUnicodeArgs, ptr %124, i32 0, i32 2
  %126 = load ptr, ptr %125, align 8, !tbaa !60
  %127 = getelementptr inbounds nuw %struct.UConverter, ptr %126, i32 0, i32 16
  %128 = load i32, ptr %127, align 8, !tbaa !22
  %129 = icmp ne i32 %128, 0
  br i1 %129, label %137, label %130

130:                                              ; preds = %123
  %131 = load ptr, ptr %4, align 8, !tbaa !8
  %132 = getelementptr inbounds nuw %struct.UConverterFromUnicodeArgs, ptr %131, i32 0, i32 2
  %133 = load ptr, ptr %132, align 8, !tbaa !60
  %134 = getelementptr inbounds nuw %struct.UConverter, ptr %133, i32 0, i32 16
  store i32 1, ptr %134, align 8, !tbaa !22
  %135 = load ptr, ptr %10, align 8, !tbaa !35
  %136 = getelementptr inbounds nuw i8, ptr %135, i32 1
  store ptr %136, ptr %10, align 8, !tbaa !35
  store i8 14, ptr %135, align 1, !tbaa !27
  br label %137

137:                                              ; preds = %130, %123
  %138 = load ptr, ptr %11, align 8, !tbaa !35
  %139 = getelementptr inbounds i8, ptr %138, i64 0
  %140 = load i8, ptr %139, align 1, !tbaa !27
  %141 = load ptr, ptr %10, align 8, !tbaa !35
  %142 = getelementptr inbounds nuw i8, ptr %141, i32 1
  store ptr %142, ptr %10, align 8, !tbaa !35
  store i8 %140, ptr %141, align 1, !tbaa !27
  %143 = load ptr, ptr %11, align 8, !tbaa !35
  %144 = getelementptr inbounds i8, ptr %143, i64 1
  %145 = load i8, ptr %144, align 1, !tbaa !27
  %146 = load ptr, ptr %10, align 8, !tbaa !35
  %147 = getelementptr inbounds nuw i8, ptr %146, i32 1
  store ptr %147, ptr %10, align 8, !tbaa !35
  store i8 %145, ptr %146, align 1, !tbaa !27
  br label %148

148:                                              ; preds = %137, %117
  br label %248

149:                                              ; preds = %95
  call void @llvm.lifetime.start.p0(i64 8, ptr %15) #11
  %150 = load ptr, ptr %8, align 8, !tbaa !8
  %151 = getelementptr inbounds nuw %struct.UConverterDataISO2022, ptr %150, i32 0, i32 1
  %152 = load ptr, ptr %151, align 8, !tbaa !36
  %153 = getelementptr inbounds nuw %struct.UConverter, ptr %152, i32 0, i32 5
  %154 = load ptr, ptr %153, align 8, !tbaa !37
  store ptr %154, ptr %15, align 8, !tbaa !35
  call void @llvm.lifetime.start.p0(i64 1, ptr %16) #11
  %155 = load ptr, ptr %8, align 8, !tbaa !8
  %156 = getelementptr inbounds nuw %struct.UConverterDataISO2022, ptr %155, i32 0, i32 1
  %157 = load ptr, ptr %156, align 8, !tbaa !36
  %158 = getelementptr inbounds nuw %struct.UConverter, ptr %157, i32 0, i32 19
  %159 = load i8, ptr %158, align 1, !tbaa !38
  store i8 %159, ptr %16, align 1, !tbaa !27
  %160 = load ptr, ptr %11, align 8, !tbaa !35
  %161 = load ptr, ptr %8, align 8, !tbaa !8
  %162 = getelementptr inbounds nuw %struct.UConverterDataISO2022, ptr %161, i32 0, i32 1
  %163 = load ptr, ptr %162, align 8, !tbaa !36
  %164 = getelementptr inbounds nuw %struct.UConverter, ptr %163, i32 0, i32 5
  store ptr %160, ptr %164, align 8, !tbaa !37
  %165 = load i32, ptr %13, align 4, !tbaa !25
  %166 = trunc i32 %165 to i8
  %167 = load ptr, ptr %8, align 8, !tbaa !8
  %168 = getelementptr inbounds nuw %struct.UConverterDataISO2022, ptr %167, i32 0, i32 1
  %169 = load ptr, ptr %168, align 8, !tbaa !36
  %170 = getelementptr inbounds nuw %struct.UConverter, ptr %169, i32 0, i32 19
  store i8 %166, ptr %170, align 1, !tbaa !38
  %171 = load ptr, ptr %8, align 8, !tbaa !8
  %172 = getelementptr inbounds nuw %struct.UConverterDataISO2022, ptr %171, i32 0, i32 1
  %173 = load ptr, ptr %172, align 8, !tbaa !36
  %174 = load ptr, ptr %4, align 8, !tbaa !8
  %175 = getelementptr inbounds nuw %struct.UConverterFromUnicodeArgs, ptr %174, i32 0, i32 2
  store ptr %173, ptr %175, align 8, !tbaa !60
  %176 = load ptr, ptr %7, align 8, !tbaa !3
  %177 = getelementptr inbounds nuw %struct.UConverter, ptr %176, i32 0, i32 17
  %178 = load i32, ptr %177, align 4, !tbaa !66
  %179 = load ptr, ptr %8, align 8, !tbaa !8
  %180 = getelementptr inbounds nuw %struct.UConverterDataISO2022, ptr %179, i32 0, i32 1
  %181 = load ptr, ptr %180, align 8, !tbaa !36
  %182 = getelementptr inbounds nuw %struct.UConverter, ptr %181, i32 0, i32 17
  store i32 %178, ptr %182, align 4, !tbaa !66
  %183 = load ptr, ptr %4, align 8, !tbaa !8
  %184 = load ptr, ptr %6, align 8, !tbaa !8
  call void @ucnv_cbFromUWriteSub_77(ptr noundef %183, i32 noundef 0, ptr noundef %184)
  %185 = load ptr, ptr %8, align 8, !tbaa !8
  %186 = getelementptr inbounds nuw %struct.UConverterDataISO2022, ptr %185, i32 0, i32 1
  %187 = load ptr, ptr %186, align 8, !tbaa !36
  %188 = getelementptr inbounds nuw %struct.UConverter, ptr %187, i32 0, i32 17
  %189 = load i32, ptr %188, align 4, !tbaa !66
  %190 = load ptr, ptr %7, align 8, !tbaa !3
  %191 = getelementptr inbounds nuw %struct.UConverter, ptr %190, i32 0, i32 17
  store i32 %189, ptr %191, align 4, !tbaa !66
  %192 = load ptr, ptr %7, align 8, !tbaa !3
  %193 = load ptr, ptr %4, align 8, !tbaa !8
  %194 = getelementptr inbounds nuw %struct.UConverterFromUnicodeArgs, ptr %193, i32 0, i32 2
  store ptr %192, ptr %194, align 8, !tbaa !60
  %195 = load ptr, ptr %15, align 8, !tbaa !35
  %196 = load ptr, ptr %8, align 8, !tbaa !8
  %197 = getelementptr inbounds nuw %struct.UConverterDataISO2022, ptr %196, i32 0, i32 1
  %198 = load ptr, ptr %197, align 8, !tbaa !36
  %199 = getelementptr inbounds nuw %struct.UConverter, ptr %198, i32 0, i32 5
  store ptr %195, ptr %199, align 8, !tbaa !37
  %200 = load i8, ptr %16, align 1, !tbaa !27
  %201 = load ptr, ptr %8, align 8, !tbaa !8
  %202 = getelementptr inbounds nuw %struct.UConverterDataISO2022, ptr %201, i32 0, i32 1
  %203 = load ptr, ptr %202, align 8, !tbaa !36
  %204 = getelementptr inbounds nuw %struct.UConverter, ptr %203, i32 0, i32 19
  store i8 %200, ptr %204, align 1, !tbaa !38
  %205 = load ptr, ptr %6, align 8, !tbaa !8
  %206 = load i32, ptr %205, align 4, !tbaa !28
  %207 = icmp eq i32 %206, 15
  br i1 %207, label %208, label %246

208:                                              ; preds = %149
  %209 = load ptr, ptr %8, align 8, !tbaa !8
  %210 = getelementptr inbounds nuw %struct.UConverterDataISO2022, ptr %209, i32 0, i32 1
  %211 = load ptr, ptr %210, align 8, !tbaa !36
  %212 = getelementptr inbounds nuw %struct.UConverter, ptr %211, i32 0, i32 21
  %213 = load i8, ptr %212, align 1, !tbaa !67
  %214 = sext i8 %213 to i32
  %215 = icmp sgt i32 %214, 0
  br i1 %215, label %216, label %234

216:                                              ; preds = %208
  br label %217

217:                                              ; preds = %216
  %218 = load ptr, ptr %7, align 8, !tbaa !3
  %219 = getelementptr inbounds nuw %struct.UConverter, ptr %218, i32 0, i32 27
  %220 = getelementptr inbounds [32 x i8], ptr %219, i64 0, i64 0
  %221 = load ptr, ptr %8, align 8, !tbaa !8
  %222 = getelementptr inbounds nuw %struct.UConverterDataISO2022, ptr %221, i32 0, i32 1
  %223 = load ptr, ptr %222, align 8, !tbaa !36
  %224 = getelementptr inbounds nuw %struct.UConverter, ptr %223, i32 0, i32 27
  %225 = getelementptr inbounds [32 x i8], ptr %224, i64 0, i64 0
  %226 = load ptr, ptr %8, align 8, !tbaa !8
  %227 = getelementptr inbounds nuw %struct.UConverterDataISO2022, ptr %226, i32 0, i32 1
  %228 = load ptr, ptr %227, align 8, !tbaa !36
  %229 = getelementptr inbounds nuw %struct.UConverter, ptr %228, i32 0, i32 21
  %230 = load i8, ptr %229, align 1, !tbaa !67
  %231 = sext i8 %230 to i64
  call void @llvm.memcpy.p0.p0.i64(ptr align 8 %220, ptr align 8 %225, i64 %231, i1 false)
  br label %232

232:                                              ; preds = %217
  br label %233

233:                                              ; preds = %232
  br label %234

234:                                              ; preds = %233, %208
  %235 = load ptr, ptr %8, align 8, !tbaa !8
  %236 = getelementptr inbounds nuw %struct.UConverterDataISO2022, ptr %235, i32 0, i32 1
  %237 = load ptr, ptr %236, align 8, !tbaa !36
  %238 = getelementptr inbounds nuw %struct.UConverter, ptr %237, i32 0, i32 21
  %239 = load i8, ptr %238, align 1, !tbaa !67
  %240 = load ptr, ptr %7, align 8, !tbaa !3
  %241 = getelementptr inbounds nuw %struct.UConverter, ptr %240, i32 0, i32 21
  store i8 %239, ptr %241, align 1, !tbaa !67
  %242 = load ptr, ptr %8, align 8, !tbaa !8
  %243 = getelementptr inbounds nuw %struct.UConverterDataISO2022, ptr %242, i32 0, i32 1
  %244 = load ptr, ptr %243, align 8, !tbaa !36
  %245 = getelementptr inbounds nuw %struct.UConverter, ptr %244, i32 0, i32 21
  store i8 0, ptr %245, align 1, !tbaa !67
  br label %246

246:                                              ; preds = %234, %149
  store i32 1, ptr %17, align 4
  call void @llvm.lifetime.end.p0(i64 1, ptr %16) #11
  call void @llvm.lifetime.end.p0(i64 8, ptr %15) #11
  br label %259

247:                                              ; preds = %3
  br label %248

248:                                              ; preds = %247, %148, %89, %72
  %249 = load ptr, ptr %4, align 8, !tbaa !8
  %250 = getelementptr inbounds [8 x i8], ptr %12, i64 0, i64 0
  %251 = load ptr, ptr %10, align 8, !tbaa !35
  %252 = getelementptr inbounds [8 x i8], ptr %12, i64 0, i64 0
  %253 = ptrtoint ptr %251 to i64
  %254 = ptrtoint ptr %252 to i64
  %255 = sub i64 %253, %254
  %256 = trunc i64 %255 to i32
  %257 = load i32, ptr %5, align 4, !tbaa !25
  %258 = load ptr, ptr %6, align 8, !tbaa !8
  call void @ucnv_cbFromUWriteBytes_77(ptr noundef %249, ptr noundef %250, i32 noundef %256, i32 noundef %257, ptr noundef %258)
  store i32 0, ptr %17, align 4
  br label %259

259:                                              ; preds = %248, %246
  call void @llvm.lifetime.end.p0(i64 4, ptr %13) #11
  call void @llvm.lifetime.end.p0(i64 8, ptr %12) #11
  call void @llvm.lifetime.end.p0(i64 8, ptr %11) #11
  call void @llvm.lifetime.end.p0(i64 8, ptr %10) #11
  call void @llvm.lifetime.end.p0(i64 8, ptr %9) #11
  call void @llvm.lifetime.end.p0(i64 8, ptr %8) #11
  call void @llvm.lifetime.end.p0(i64 8, ptr %7) #11
  %260 = load i32, ptr %17, align 4
  switch i32 %260, label %262 [
    i32 0, label %261
    i32 1, label %261
  ]

261:                                              ; preds = %259, %259
  ret void

262:                                              ; preds = %259
  unreachable
}