; Function Attrs: mustprogress uwtable
define internal void @_ZL18_ISO_2022_WriteSubP25UConverterFromUnicodeArgsiP10UErrorCode(ptr noundef %0, i32 noundef %1, ptr noundef %2) #0 {
  %4 = alloca [8 x i8], align 1
  %5 = getelementptr inbounds nuw i8, ptr %0, i64 8
  %6 = load ptr, ptr %5, align 8, !tbaa !52
  %7 = getelementptr inbounds nuw i8, ptr %6, i64 16
  %8 = load ptr, ptr %7, align 8, !tbaa !3
  %9 = getelementptr inbounds nuw i8, ptr %8, i64 98
  call void @llvm.lifetime.start.p0(i64 8, ptr nonnull %4) #12
  %10 = getelementptr inbounds nuw i8, ptr %6, i64 40
  %11 = load ptr, ptr %10, align 8, !tbaa !29
  %12 = getelementptr inbounds nuw i8, ptr %6, i64 89
  %13 = load i8, ptr %12, align 1, !tbaa !30
  %14 = getelementptr inbounds nuw i8, ptr %8, i64 143
  %15 = load i8, ptr %14, align 1, !tbaa !23
  switch i8 %15, label %92 [
    i8 106, label %16
    i8 99, label %31
    i8 107, label %39
  ]

16:                                               ; preds = %3
  %17 = getelementptr inbounds nuw i8, ptr %8, i64 102
  %18 = load i8, ptr %17, align 1, !tbaa !55
  %19 = icmp eq i8 %18, 1
  br i1 %19, label %20, label %22

20:                                               ; preds = %16
  store i8 0, ptr %17, align 1, !tbaa !55
  %21 = getelementptr inbounds nuw i8, ptr %4, i64 1
  store i8 15, ptr %4, align 1, !tbaa !23
  br label %22

22:                                               ; preds = %20, %16
  %.0 = phi ptr [ %21, %20 ], [ %4, %16 ]
  %23 = load i8, ptr %9, align 1, !tbaa !23
  switch i8 %23, label %24 [
    i8 3, label %28
    i8 0, label %28
  ]

24:                                               ; preds = %22
  store i8 0, ptr %9, align 1, !tbaa !23
  %25 = getelementptr inbounds nuw i8, ptr %.0, i64 1
  store i8 27, ptr %.0, align 1, !tbaa !23
  %26 = getelementptr inbounds nuw i8, ptr %.0, i64 2
  store i8 40, ptr %25, align 1, !tbaa !23
  %27 = getelementptr inbounds nuw i8, ptr %.0, i64 3
  store i8 66, ptr %26, align 1, !tbaa !23
  br label %28

28:                                               ; preds = %22, %22, %24
  %.1 = phi ptr [ %27, %24 ], [ %.0, %22 ], [ %.0, %22 ]
  %29 = load i8, ptr %11, align 1, !tbaa !23
  %30 = getelementptr inbounds nuw i8, ptr %.1, i64 1
  store i8 %29, ptr %.1, align 1, !tbaa !23
  br label %92

31:                                               ; preds = %3
  %32 = getelementptr inbounds nuw i8, ptr %8, i64 102
  %33 = load i8, ptr %32, align 1, !tbaa !55
  %.not71 = icmp eq i8 %33, 0
  br i1 %.not71, label %36, label %34

34:                                               ; preds = %31
  store i8 0, ptr %32, align 1, !tbaa !55
  %35 = getelementptr inbounds nuw i8, ptr %4, i64 1
  store i8 15, ptr %4, align 1, !tbaa !23
  br label %36

36:                                               ; preds = %34, %31
  %.3 = phi ptr [ %35, %34 ], [ %4, %31 ]
  %37 = load i8, ptr %11, align 1, !tbaa !23
  %38 = getelementptr inbounds nuw i8, ptr %.3, i64 1
  store i8 %37, ptr %.3, align 1, !tbaa !23
  br label %92

39:                                               ; preds = %3
  %40 = getelementptr inbounds nuw i8, ptr %8, i64 108
  %41 = load i32, ptr %40, align 4, !tbaa !18
  %42 = icmp eq i32 %41, 0
  br i1 %42, label %43, label %62

43:                                               ; preds = %39
  %44 = icmp eq i8 %13, 1
  %45 = getelementptr inbounds nuw i8, ptr %6, i64 80
  %46 = load i32, ptr %45, align 8, !tbaa !15
  %.not70 = icmp eq i32 %46, 0
  br i1 %44, label %47, label %53

47:                                               ; preds = %43
  br i1 %.not70, label %50, label %48

48:                                               ; preds = %47
  store i32 0, ptr %45, align 8, !tbaa !15
  %49 = getelementptr inbounds nuw i8, ptr %4, i64 1
  store i8 15, ptr %4, align 1, !tbaa !23
  br label %50

50:                                               ; preds = %48, %47
  %.4 = phi ptr [ %49, %48 ], [ %4, %47 ]
  %51 = load i8, ptr %11, align 1, !tbaa !23
  %52 = getelementptr inbounds nuw i8, ptr %.4, i64 1
  store i8 %51, ptr %.4, align 1, !tbaa !23
  br label %92

53:                                               ; preds = %43
  br i1 %.not70, label %54, label %56

54:                                               ; preds = %53
  store i32 1, ptr %45, align 8, !tbaa !15
  %55 = getelementptr inbounds nuw i8, ptr %4, i64 1
  store i8 14, ptr %4, align 1, !tbaa !23
  br label %56

56:                                               ; preds = %54, %53
  %.5 = phi ptr [ %4, %53 ], [ %55, %54 ]
  %57 = load i8, ptr %11, align 1, !tbaa !23
  %58 = getelementptr inbounds nuw i8, ptr %.5, i64 1
  store i8 %57, ptr %.5, align 1, !tbaa !23
  %59 = getelementptr inbounds nuw i8, ptr %11, i64 1
  %60 = load i8, ptr %59, align 1, !tbaa !23
  %61 = getelementptr inbounds nuw i8, ptr %.5, i64 2
  store i8 %60, ptr %58, align 1, !tbaa !23
  br label %92

62:                                               ; preds = %39
  %63 = getelementptr inbounds nuw i8, ptr %8, i64 80
  %64 = load ptr, ptr %63, align 8, !tbaa !28
  %65 = getelementptr inbounds nuw i8, ptr %64, i64 40
  %66 = load ptr, ptr %65, align 8, !tbaa !29
  %67 = getelementptr inbounds nuw i8, ptr %64, i64 89
  %68 = load i8, ptr %67, align 1, !tbaa !30
  store ptr %11, ptr %65, align 8, !tbaa !29
  store i8 %13, ptr %67, align 1, !tbaa !30
  store ptr %64, ptr %5, align 8, !tbaa !52
  %69 = getelementptr inbounds nuw i8, ptr %6, i64 84
  %70 = load i32, ptr %69, align 4, !tbaa !35
  %71 = getelementptr inbounds nuw i8, ptr %64, i64 84
  store i32 %70, ptr %71, align 4, !tbaa !35
  tail call void @ucnv_cbFromUWriteSub_77(ptr noundef nonnull %0, i32 noundef 0, ptr noundef %2)
  %72 = load ptr, ptr %63, align 8, !tbaa !28
  %73 = getelementptr inbounds nuw i8, ptr %72, i64 84
  %74 = load i32, ptr %73, align 4, !tbaa !35
  store i32 %74, ptr %69, align 4, !tbaa !35
  store ptr %6, ptr %5, align 8, !tbaa !52
  %75 = getelementptr inbounds nuw i8, ptr %72, i64 40
  store ptr %66, ptr %75, align 8, !tbaa !29
  %76 = getelementptr inbounds nuw i8, ptr %72, i64 89
  store i8 %68, ptr %76, align 1, !tbaa !30
  %77 = load i32, ptr %2, align 4, !tbaa !24
  %78 = icmp eq i32 %77, 15
  br i1 %78, label %79, label %97

79:                                               ; preds = %62
  %80 = getelementptr inbounds nuw i8, ptr %72, i64 91
  %81 = load i8, ptr %80, align 1, !tbaa !34
  %82 = icmp sgt i8 %81, 0
  br i1 %82, label %83, label %87

83:                                               ; preds = %79
  %84 = getelementptr inbounds nuw i8, ptr %6, i64 104
  %85 = getelementptr inbounds nuw i8, ptr %72, i64 104
  %86 = zext nneg i8 %81 to i64
  tail call void @llvm.memcpy.p0.p0.i64(ptr nonnull align 8 %84, ptr nonnull align 8 %85, i64 %86, i1 false)
  %.pre = load ptr, ptr %63, align 8, !tbaa !28
  %.phi.trans.insert = getelementptr inbounds nuw i8, ptr %.pre, i64 91
  %.pre72 = load i8, ptr %.phi.trans.insert, align 1, !tbaa !34
  br label %87

87:                                               ; preds = %83, %79
  %88 = phi i8 [ %.pre72, %83 ], [ %81, %79 ]
  %89 = phi ptr [ %.pre, %83 ], [ %72, %79 ]
  %90 = getelementptr inbounds nuw i8, ptr %89, i64 91
  %91 = getelementptr inbounds nuw i8, ptr %6, i64 91
  store i8 %88, ptr %91, align 1, !tbaa !34
  store i8 0, ptr %90, align 1, !tbaa !34
  br label %97

92:                                               ; preds = %3, %50, %56, %36, %28
  %.2 = phi ptr [ %4, %3 ], [ %52, %50 ], [ %61, %56 ], [ %38, %36 ], [ %30, %28 ]
  %93 = ptrtoint ptr %.2 to i64
  %94 = ptrtoint ptr %4 to i64
  %95 = sub i64 %93, %94
  %96 = trunc i64 %95 to i32
  call void @ucnv_cbFromUWriteBytes_77(ptr noundef nonnull %0, ptr noundef nonnull %4, i32 noundef %96, i32 noundef %1, ptr noundef %2)
  br label %97

97:                                               ; preds = %62, %87, %92
  call void @llvm.lifetime.end.p0(i64 8, ptr nonnull %4) #12
  ret void
}